target datalayout = "e-m:e-p270:32:32-p271:32:32-p272:64:64-i64:64-i128:128-f80:128-n8:16:32:64-S128"
target triple = "x86_64-pc-linux-gnu"

%struct.TValue = type { %union.Value, i8 }
%union.Value = type { ptr }
%struct.GCObject = type { ptr, i8, i8 }
%struct.UpVal = type { ptr, i8, i8, %union.anon.4, %union.anon.5 }
%union.anon.4 = type { ptr }
%union.anon.5 = type { %struct.anon.6 }
%struct.anon.6 = type { ptr, ptr }
%struct.Udata = type { ptr, i8, i8, i16, i64, ptr, ptr, [1 x %union.UValue] }
%union.UValue = type { %struct.TValue }
%struct.LClosure = type { ptr, i8, i8, i8, ptr, ptr, [1 x ptr] }
%struct.CClosure = type { ptr, i8, i8, i8, ptr, ptr, [1 x %struct.TValue] }
%struct.TString = type { ptr, i8, i8, i8, i8, i32, %union.anon.3, ptr, ptr, ptr }
%union.anon.3 = type { i64 }

; Function Attrs: nounwind uwtable
define internal void @freeupval(ptr noundef %0, ptr noundef %1) #0 {
  %3 = alloca ptr, align 8
  %4 = alloca ptr, align 8
  store ptr %0, ptr %3, align 8, !tbaa !4
  store ptr %1, ptr %4, align 8, !tbaa !36
  %5 = load ptr, ptr %4, align 8, !tbaa !36
  %6 = getelementptr inbounds nuw %struct.UpVal, ptr %5, i32 0, i32 3
  %7 = load ptr, ptr %6, align 8, !tbaa !37
  %8 = load ptr, ptr %4, align 8, !tbaa !36
  %9 = getelementptr inbounds nuw %struct.UpVal, ptr %8, i32 0, i32 4
  %10 = icmp ne ptr %7, %9
  br i1 %10, label %11, label %13

11:                                               ; preds = %2
  %12 = load ptr, ptr %4, align 8, !tbaa !36
  call void @luaF_unlinkupval(ptr noundef %12)
  br label %13

13:                                               ; preds = %11, %2
  %14 = load ptr, ptr %3, align 8, !tbaa !4
  %15 = load ptr, ptr %4, align 8, !tbaa !36
  call void @luaM_free_(ptr noundef %14, ptr noundef %15, i64 noundef 40)
  ret void
}

; Function Attrs: nounwind uwtable
define internal void @freeobj(ptr noundef %0, ptr noundef %1) #0 {
  %3 = alloca ptr, align 8
  %4 = alloca ptr, align 8
  %5 = alloca ptr, align 8
  %6 = alloca ptr, align 8
  %7 = alloca ptr, align 8
  %8 = alloca ptr, align 8
  %9 = alloca ptr, align 8
  store ptr %0, ptr %3, align 8, !tbaa !4
  store ptr %1, ptr %4, align 8, !tbaa !9
  %10 = load ptr, ptr %4, align 8, !tbaa !9
  %11 = getelementptr inbounds nuw %struct.GCObject, ptr %10, i32 0, i32 1
  %12 = load i8, ptr %11, align 8, !tbaa !35
  %13 = zext i8 %12 to i32
  switch i32 %13, label %118 [
    i32 10, label %14
    i32 9, label %17
    i32 6, label %20
    i32 38, label %31
    i32 5, label %42
    i32 8, label %45
    i32 7, label %48
    i32 4, label %71
    i32 20, label %85
  ]

14:                                               ; preds = %2
  %15 = load ptr, ptr %3, align 8, !tbaa !4
  %16 = load ptr, ptr %4, align 8, !tbaa !9
  call void @luaF_freeproto(ptr noundef %15, ptr noundef %16)
  br label %119

17:                                               ; preds = %2
  %18 = load ptr, ptr %3, align 8, !tbaa !4
  %19 = load ptr, ptr %4, align 8, !tbaa !9
  call void @freeupval(ptr noundef %18, ptr noundef %19)
  br label %119

20:                                               ; preds = %2
  call void @llvm.lifetime.start.p0(i64 8, ptr %5) #6
  %21 = load ptr, ptr %4, align 8, !tbaa !9
  store ptr %21, ptr %5, align 8, !tbaa !79
  %22 = load ptr, ptr %3, align 8, !tbaa !4
  %23 = load ptr, ptr %5, align 8, !tbaa !79
  %24 = load ptr, ptr %5, align 8, !tbaa !79
  %25 = getelementptr inbounds nuw %struct.LClosure, ptr %24, i32 0, i32 3
  %26 = load i8, ptr %25, align 2, !tbaa !81
  %27 = zext i8 %26 to i32
  %28 = zext i32 %27 to i64
  %29 = mul i64 8, %28
  %30 = add i64 32, %29
  call void @luaM_free_(ptr noundef %22, ptr noundef %23, i64 noundef %30)
  call void @llvm.lifetime.end.p0(i64 8, ptr %5) #6
  br label %119

31:                                               ; preds = %2
  call void @llvm.lifetime.start.p0(i64 8, ptr %6) #6
  %32 = load ptr, ptr %4, align 8, !tbaa !9
  store ptr %32, ptr %6, align 8, !tbaa !84
  %33 = load ptr, ptr %3, align 8, !tbaa !4
  %34 = load ptr, ptr %6, align 8, !tbaa !84
  %35 = load ptr, ptr %6, align 8, !tbaa !84
  %36 = getelementptr inbounds nuw %struct.CClosure, ptr %35, i32 0, i32 3
  %37 = load i8, ptr %36, align 2, !tbaa !86
  %38 = zext i8 %37 to i32
  %39 = zext i32 %38 to i64
  %40 = mul i64 16, %39
  %41 = add i64 32, %40
  call void @luaM_free_(ptr noundef %33, ptr noundef %34, i64 noundef %41)
  call void @llvm.lifetime.end.p0(i64 8, ptr %6) #6
  br label %119

42:                                               ; preds = %2
  %43 = load ptr, ptr %3, align 8, !tbaa !4
  %44 = load ptr, ptr %4, align 8, !tbaa !9
  call void @luaH_free(ptr noundef %43, ptr noundef %44)
  br label %119

45:                                               ; preds = %2
  %46 = load ptr, ptr %3, align 8, !tbaa !4
  %47 = load ptr, ptr %4, align 8, !tbaa !9
  call void @luaE_freethread(ptr noundef %46, ptr noundef %47)
  br label %119

48:                                               ; preds = %2
  call void @llvm.lifetime.start.p0(i64 8, ptr %7) #6
  %49 = load ptr, ptr %4, align 8, !tbaa !9
  store ptr %49, ptr %7, align 8, !tbaa !41
  %50 = load ptr, ptr %3, align 8, !tbaa !4
  %51 = load ptr, ptr %4, align 8, !tbaa !9
  %52 = load ptr, ptr %7, align 8, !tbaa !41
  %53 = getelementptr inbounds nuw %struct.Udata, ptr %52, i32 0, i32 3
  %54 = load i16, ptr %53, align 2, !tbaa !43
  %55 = zext i16 %54 to i32
  %56 = icmp eq i32 %55, 0
  br i1 %56, label %57, label %58

57:                                               ; preds = %48
  br label %65

58:                                               ; preds = %48
  %59 = load ptr, ptr %7, align 8, !tbaa !41
  %60 = getelementptr inbounds nuw %struct.Udata, ptr %59, i32 0, i32 3
  %61 = load i16, ptr %60, align 2, !tbaa !43
  %62 = zext i16 %61 to i64
  %63 = mul i64 16, %62
  %64 = add i64 40, %63
  br label %65

65:                                               ; preds = %58, %57
  %66 = phi i64 [ 32, %57 ], [ %64, %58 ]
  %67 = load ptr, ptr %7, align 8, !tbaa !41
  %68 = getelementptr inbounds nuw %struct.Udata, ptr %67, i32 0, i32 4
  %69 = load i64, ptr %68, align 8, !tbaa !88
  %70 = add i64 %66, %69
  call void @luaM_free_(ptr noundef %50, ptr noundef %51, i64 noundef %70)
  call void @llvm.lifetime.end.p0(i64 8, ptr %7) #6
  br label %119

71:                                               ; preds = %2
  call void @llvm.lifetime.start.p0(i64 8, ptr %8) #6
  %72 = load ptr, ptr %4, align 8, !tbaa !9
  store ptr %72, ptr %8, align 8, !tbaa !61
  %73 = load ptr, ptr %3, align 8, !tbaa !4
  %74 = load ptr, ptr %8, align 8, !tbaa !61
  call void @luaS_remove(ptr noundef %73, ptr noundef %74)
  %75 = load ptr, ptr %3, align 8, !tbaa !4
  %76 = load ptr, ptr %8, align 8, !tbaa !61
  %77 = load ptr, ptr %8, align 8, !tbaa !61
  %78 = getelementptr inbounds nuw %struct.TString, ptr %77, i32 0, i32 4
  %79 = load i8, ptr %78, align 1, !tbaa !89
  %80 = sext i8 %79 to i32
  %81 = add i32 %80, 1
  %82 = zext i32 %81 to i64
  %83 = mul i64 %82, 1
  %84 = add i64 24, %83
  call void @luaM_free_(ptr noundef %75, ptr noundef %76, i64 noundef %84)
  call void @llvm.lifetime.end.p0(i64 8, ptr %8) #6
  br label %119

85:                                               ; preds = %2
  call void @llvm.lifetime.start.p0(i64 8, ptr %9) #6
  %86 = load ptr, ptr %4, align 8, !tbaa !9
  store ptr %86, ptr %9, align 8, !tbaa !61
  %87 = load ptr, ptr %9, align 8, !tbaa !61
  %88 = getelementptr inbounds nuw %struct.TString, ptr %87, i32 0, i32 4
  %89 = load i8, ptr %88, align 1, !tbaa !89
  %90 = sext i8 %89 to i32
  %91 = icmp eq i32 %90, -3
  br i1 %91, label %92, label %107

92:                                               ; preds = %85
  %93 = load ptr, ptr %9, align 8, !tbaa !61
  %94 = getelementptr inbounds nuw %struct.TString, ptr %93, i32 0, i32 8
  %95 = load ptr, ptr %94, align 8, !tbaa !91
  %96 = load ptr, ptr %9, align 8, !tbaa !61
  %97 = getelementptr inbounds nuw %struct.TString, ptr %96, i32 0, i32 9
  %98 = load ptr, ptr %97, align 8, !tbaa !92
  %99 = load ptr, ptr %9, align 8, !tbaa !61
  %100 = getelementptr inbounds nuw %struct.TString, ptr %99, i32 0, i32 7
  %101 = load ptr, ptr %100, align 8, !tbaa !93
  %102 = load ptr, ptr %9, align 8, !tbaa !61
  %103 = getelementptr inbounds nuw %struct.TString, ptr %102, i32 0, i32 6
  %104 = load i64, ptr %103, align 8, !tbaa !37
  %105 = add i64 %104, 1
  %106 = call ptr %95(ptr noundef %98, ptr noundef %101, i64 noundef %105, i64 noundef 0)
  br label %107

107:                                              ; preds = %92, %85
  %108 = load ptr, ptr %3, align 8, !tbaa !4
  %109 = load ptr, ptr %9, align 8, !tbaa !61
  %110 = load ptr, ptr %9, align 8, !tbaa !61
  %111 = getelementptr inbounds nuw %struct.TString, ptr %110, i32 0, i32 6
  %112 = load i64, ptr %111, align 8, !tbaa !37
  %113 = load ptr, ptr %9, align 8, !tbaa !61
  %114 = getelementptr inbounds nuw %struct.TString, ptr %113, i32 0, i32 4
  %115 = load i8, ptr %114, align 1, !tbaa !89
  %116 = sext i8 %115 to i32
  %117 = call i64 @luaS_sizelngstr(i64 noundef %112, i32 noundef %116)
  call void @luaM_free_(ptr noundef %108, ptr noundef %109, i64 noundef %117)
  call void @llvm.lifetime.end.p0(i64 8, ptr %9) #6
  br label %119

118:                                              ; preds = %2
  br label %119

119:                                              ; preds = %118, %107, %71, %65, %45, %42, %31, %20, %17, %14
  ret void
}