; Function Attrs: nounwind uwtable
define internal fastcc void @freeobj(ptr noundef %0, ptr noundef %1) unnamed_addr #0 {
  %3 = getelementptr inbounds nuw i8, ptr %1, i64 8
  %4 = load i8, ptr %3, align 8, !tbaa !32
  switch i8 %4, label %64 [
    i8 10, label %5
    i8 9, label %6
    i8 6, label %11
    i8 38, label %17
    i8 5, label %23
    i8 8, label %24
    i8 7, label %25
    i8 4, label %36
    i8 20, label %43
  ]

5:                                                ; preds = %2
  tail call void @luaF_freeproto(ptr noundef %0, ptr noundef nonnull %1) #8
  br label %64

6:                                                ; preds = %2
  %7 = getelementptr inbounds nuw i8, ptr %1, i64 16
  %8 = load ptr, ptr %7, align 8, !tbaa !33
  %9 = getelementptr inbounds nuw i8, ptr %1, i64 24
  %.not.i = icmp eq ptr %8, %9
  br i1 %.not.i, label %freeupval.exit, label %10

10:                                               ; preds = %6
  tail call void @luaF_unlinkupval(ptr noundef nonnull %1) #8
  br label %freeupval.exit

freeupval.exit:                                   ; preds = %6, %10
  tail call void @luaM_free_(ptr noundef %0, ptr noundef nonnull %1, i64 noundef 40) #8
  br label %64

11:                                               ; preds = %2
  %12 = getelementptr inbounds nuw i8, ptr %1, i64 10
  %13 = load i8, ptr %12, align 2, !tbaa !75
  %14 = zext i8 %13 to i64
  %15 = shl nuw nsw i64 %14, 3
  %16 = add nuw nsw i64 %15, 32
  tail call void @luaM_free_(ptr noundef %0, ptr noundef nonnull %1, i64 noundef %16) #8
  br label %64

17:                                               ; preds = %2
  %18 = getelementptr inbounds nuw i8, ptr %1, i64 10
  %19 = load i8, ptr %18, align 2, !tbaa !78
  %20 = zext i8 %19 to i64
  %21 = shl nuw nsw i64 %20, 4
  %22 = add nuw nsw i64 %21, 32
  tail call void @luaM_free_(ptr noundef %0, ptr noundef nonnull %1, i64 noundef %22) #8
  br label %64

23:                                               ; preds = %2
  tail call void @luaH_free(ptr noundef %0, ptr noundef nonnull %1) #8
  br label %64

24:                                               ; preds = %2
  tail call void @luaE_freethread(ptr noundef %0, ptr noundef nonnull %1) #8
  br label %64

25:                                               ; preds = %2
  %26 = getelementptr inbounds nuw i8, ptr %1, i64 10
  %27 = load i16, ptr %26, align 2, !tbaa !37
  %28 = icmp eq i16 %27, 0
  %29 = zext i16 %27 to i64
  %30 = shl nuw nsw i64 %29, 4
  %31 = add nuw nsw i64 %30, 40
  %32 = select i1 %28, i64 32, i64 %31
  %33 = getelementptr inbounds nuw i8, ptr %1, i64 16
  %34 = load i64, ptr %33, align 8, !tbaa !80
  %35 = add i64 %32, %34
  tail call void @luaM_free_(ptr noundef %0, ptr noundef nonnull %1, i64 noundef %35) #8
  br label %64

36:                                               ; preds = %2
  tail call void @luaS_remove(ptr noundef %0, ptr noundef nonnull %1) #8
  %37 = getelementptr inbounds nuw i8, ptr %1, i64 11
  %38 = load i8, ptr %37, align 1, !tbaa !81
  %39 = sext i8 %38 to i64
  %40 = add nsw i64 %39, 1
  %41 = and i64 %40, 4294967295
  %42 = add nuw nsw i64 %41, 24
  tail call void @luaM_free_(ptr noundef %0, ptr noundef nonnull %1, i64 noundef %42) #8
  br label %64

43:                                               ; preds = %2
  %44 = getelementptr inbounds nuw i8, ptr %1, i64 11
  %45 = load i8, ptr %44, align 1, !tbaa !81
  %46 = icmp eq i8 %45, -3
  br i1 %46, label %47, label %58

47:                                               ; preds = %43
  %48 = getelementptr inbounds nuw i8, ptr %1, i64 32
  %49 = load ptr, ptr %48, align 8, !tbaa !84
  %50 = getelementptr inbounds nuw i8, ptr %1, i64 40
  %51 = load ptr, ptr %50, align 8, !tbaa !85
  %52 = getelementptr inbounds nuw i8, ptr %1, i64 24
  %53 = load ptr, ptr %52, align 8, !tbaa !86
  %54 = getelementptr inbounds nuw i8, ptr %1, i64 16
  %55 = load i64, ptr %54, align 8, !tbaa !33
  %56 = add i64 %55, 1
  %57 = tail call ptr %49(ptr noundef %51, ptr noundef %53, i64 noundef %56, i64 noundef 0) #8
  %.pre = load i8, ptr %44, align 1, !tbaa !81
  br label %58

58:                                               ; preds = %47, %43
  %59 = phi i8 [ %.pre, %47 ], [ %45, %43 ]
  %60 = getelementptr inbounds nuw i8, ptr %1, i64 16
  %61 = load i64, ptr %60, align 8, !tbaa !33
  %62 = sext i8 %59 to i32
  %63 = tail call i64 @luaS_sizelngstr(i64 noundef %61, i32 noundef %62) #8
  tail call void @luaM_free_(ptr noundef %0, ptr noundef nonnull %1, i64 noundef %63) #8
  br label %64

64:                                               ; preds = %2, %58, %36, %25, %24, %23, %17, %11, %freeupval.exit, %5
  ret void
}